; Function Attrs: nounwind uwtable
define ptr @l_Lean_SMap_forM___rarg___lambda__1___boxed(ptr noundef %0, ptr noundef %1, ptr noundef %2, ptr noundef %3, ptr noundef %4, ptr noundef %5) #0 {
  %7 = getelementptr inbounds nuw i8, ptr %0, i64 16
  %8 = load ptr, ptr %7, align 8, !tbaa !4
  %9 = ptrtoint ptr %8 to i64
  %10 = and i64 %9, 1
  %.not.i16 = icmp eq i64 %10, 0
  br i1 %.not.i16, label %11, label %lean_inc.exit.i

11:                                               ; preds = %6
  %.val.i.i = load i32, ptr %8, align 4, !tbaa !10
  %12 = icmp sgt i32 %.val.i.i, 0
  br i1 %12, label %13, label %15, !prof !15

13:                                               ; preds = %11
  %14 = add nuw i32 %.val.i.i, 1
  store i32 %14, ptr %8, align 4, !tbaa !10
  br label %lean_inc.exit.i

15:                                               ; preds = %11
  %.not.i9.i = icmp eq i32 %.val.i.i, 0
  br i1 %.not.i9.i, label %lean_inc.exit.i, label %16

16:                                               ; preds = %15
  tail call void @lean_inc_ref_cold(ptr noundef nonnull %8) #3
  br label %lean_inc.exit.i

lean_inc.exit.i:                                  ; preds = %16, %15, %13, %6
  %17 = ptrtoint ptr %0 to i64
  %18 = and i64 %17, 1
  %.not10.i = icmp eq i64 %18, 0
  br i1 %.not10.i, label %19, label %l_Lean_SMap_forM___rarg___lambda__1.exit

19:                                               ; preds = %lean_inc.exit.i
  %20 = load i32, ptr %0, align 4, !tbaa !10
  %21 = icmp sgt i32 %20, 1
  br i1 %21, label %22, label %24, !prof !15

22:                                               ; preds = %19
  %23 = add nsw i32 %20, -1
  store i32 %23, ptr %0, align 4, !tbaa !10
  br label %l_Lean_SMap_forM___rarg___lambda__1.exit

24:                                               ; preds = %19
  %.not.i.i = icmp eq i32 %20, 0
  br i1 %.not.i.i, label %l_Lean_SMap_forM___rarg___lambda__1.exit, label %25

25:                                               ; preds = %24
  tail call void @lean_dec_ref_cold(ptr noundef nonnull %0) #3
  br label %l_Lean_SMap_forM___rarg___lambda__1.exit

l_Lean_SMap_forM___rarg___lambda__1.exit:         ; preds = %lean_inc.exit.i, %22, %24, %25
  %26 = tail call ptr @l_Lean_PersistentHashMap_forM___rarg(ptr noundef %1, ptr noundef nonnull inttoptr (i64 1 to ptr), ptr noundef nonnull inttoptr (i64 1 to ptr), ptr noundef %2, ptr noundef %3, ptr noundef %8, ptr noundef %4) #3
  %27 = ptrtoint ptr %5 to i64
  %28 = and i64 %27, 1
  %.not = icmp eq i64 %28, 0
  br i1 %.not, label %29, label %lean_dec.exit11

29:                                               ; preds = %l_Lean_SMap_forM___rarg___lambda__1.exit
  %30 = load i32, ptr %5, align 4, !tbaa !10
  %31 = icmp sgt i32 %30, 1
  br i1 %31, label %32, label %34, !prof !15

32:                                               ; preds = %29
  %33 = add nsw i32 %30, -1
  store i32 %33, ptr %5, align 4, !tbaa !10
  br label %lean_dec.exit11

34:                                               ; preds = %29
  %.not.i = icmp eq i32 %30, 0
  br i1 %.not.i, label %lean_dec.exit11, label %35

35:                                               ; preds = %34
  tail call void @lean_dec_ref_cold(ptr noundef nonnull %5) #3
  br label %lean_dec.exit11

lean_dec.exit11:                                  ; preds = %35, %34, %32, %l_Lean_SMap_forM___rarg___lambda__1.exit
  %36 = ptrtoint ptr %3 to i64
  %37 = and i64 %36, 1
  %.not17 = icmp eq i64 %37, 0
  br i1 %.not17, label %38, label %lean_dec.exit10

38:                                               ; preds = %lean_dec.exit11
  %39 = load i32, ptr %3, align 4, !tbaa !10
  %40 = icmp sgt i32 %39, 1
  br i1 %40, label %41, label %43, !prof !15

41:                                               ; preds = %38
  %42 = add nsw i32 %39, -1
  store i32 %42, ptr %3, align 4, !tbaa !10
  br label %lean_dec.exit10

43:                                               ; preds = %38
  %.not.i12 = icmp eq i32 %39, 0
  br i1 %.not.i12, label %lean_dec.exit10, label %44

44:                                               ; preds = %43
  tail call void @lean_dec_ref_cold(ptr noundef nonnull %3) #3
  br label %lean_dec.exit10

lean_dec.exit10:                                  ; preds = %44, %43, %41, %lean_dec.exit11
  %45 = ptrtoint ptr %2 to i64
  %46 = and i64 %45, 1
  %.not18 = icmp eq i64 %46, 0
  br i1 %.not18, label %47, label %lean_dec.exit

47:                                               ; preds = %lean_dec.exit10
  %48 = load i32, ptr %2, align 4, !tbaa !10
  %49 = icmp sgt i32 %48, 1
  br i1 %49, label %50, label %52, !prof !15

50:                                               ; preds = %47
  %51 = add nsw i32 %48, -1
  store i32 %51, ptr %2, align 4, !tbaa !10
  br label %lean_dec.exit

52:                                               ; preds = %47
  %.not.i14 = icmp eq i32 %48, 0
  br i1 %.not.i14, label %lean_dec.exit, label %53

53:                                               ; preds = %52
  tail call void @lean_dec_ref_cold(ptr noundef nonnull %2) #3
  br label %lean_dec.exit

lean_dec.exit:                                    ; preds = %53, %52, %50, %lean_dec.exit10
  ret ptr %26
}